ARM GAS  C:\Users\Tshud\AppData\Local\Temp\ccaWs918.s 			page 1


   1              		.cpu cortex-m4
   2              		.arch armv7e-m
   3              		.fpu fpv4-sp-d16
   4              		.eabi_attribute 27, 1
   5              		.eabi_attribute 28, 1
   6              		.eabi_attribute 20, 1
   7              		.eabi_attribute 21, 1
   8              		.eabi_attribute 23, 3
   9              		.eabi_attribute 24, 1
  10              		.eabi_attribute 25, 1
  11              		.eabi_attribute 26, 1
  12              		.eabi_attribute 30, 1
  13              		.eabi_attribute 34, 1
  14              		.eabi_attribute 18, 4
  15              		.file	"bolt_application.c"
  16              		.text
  17              	.Ltext0:
  18              		.cfi_sections	.debug_frame
  19              		.file 1 "Src/bolt_application.c"
  20              		.section	.text.applicationSetup,"ax",%progbits
  21              		.align	1
  22              		.global	applicationSetup
  23              		.syntax unified
  24              		.thumb
  25              		.thumb_func
  27              	applicationSetup:
  28              	.LVL0:
  29              	.LFB132:
   1:Src/bolt_application.c **** /**
   2:Src/bolt_application.c ****  ******************************************************************************
   3:Src/bolt_application.c ****  * @file    gpio.c
   4:Src/bolt_application.c ****  * @brief   This file provides code for the configuration
   5:Src/bolt_application.c ****  *          of all used GPIO pins.
   6:Src/bolt_application.c ****  ******************************************************************************
   7:Src/bolt_application.c ****  * @attention
   8:Src/bolt_application.c ****  *
   9:Src/bolt_application.c ****  * Copyright (c) 2024 STMicroelectronics.
  10:Src/bolt_application.c ****  * All rights reserved.
  11:Src/bolt_application.c ****  *
  12:Src/bolt_application.c ****  * This software is licensed under terms that can be found in the LICENSE file
  13:Src/bolt_application.c ****  * in the root directory of this software component.
  14:Src/bolt_application.c ****  * If no LICENSE file comes with this software, it is provided AS-IS.
  15:Src/bolt_application.c ****  *
  16:Src/bolt_application.c ****  ******************************************************************************
  17:Src/bolt_application.c ****  */
  18:Src/bolt_application.c **** 
  19:Src/bolt_application.c **** #include "bolt_application.h"
  20:Src/bolt_application.c **** #include "main.h"
  21:Src/bolt_application.c **** #include "usart.h"
  22:Src/bolt_application.c **** 
  23:Src/bolt_application.c **** Application applicationSetup()
  24:Src/bolt_application.c **** {
  30              		.loc 1 24 1 view -0
  31              		.cfi_startproc
  32              		@ args = 0, pretend = 0, frame = 8
  33              		@ frame_needed = 0, uses_anonymous_args = 0
  34              		.loc 1 24 1 is_stmt 0 view .LVU1
ARM GAS  C:\Users\Tshud\AppData\Local\Temp\ccaWs918.s 			page 2


  35 0000 30B5     		push	{r4, r5, lr}
  36              		.cfi_def_cfa_offset 12
  37              		.cfi_offset 4, -12
  38              		.cfi_offset 5, -8
  39              		.cfi_offset 14, -4
  40 0002 83B0     		sub	sp, sp, #12
  41              		.cfi_def_cfa_offset 24
  42 0004 0446     		mov	r4, r0
  25:Src/bolt_application.c ****   Application app;
  43              		.loc 1 25 3 is_stmt 1 view .LVU2
  26:Src/bolt_application.c ****   app.nonblocking_led_timer = SWTimer_construct(MS_IN_SECONDS);
  44              		.loc 1 26 3 view .LVU3
  45              		.loc 1 26 31 is_stmt 0 view .LVU4
  46 0006 6D46     		mov	r5, sp
  47 0008 4FF47A71 		mov	r1, #1000
  48 000c 2846     		mov	r0, r5
  49              	.LVL1:
  50              		.loc 1 26 31 view .LVU5
  51 000e FFF7FEFF 		bl	SWTimer_construct
  52              	.LVL2:
  53 0012 95E80300 		ldm	r5, {r0, r1}
  54 0016 84E80300 		stm	r4, {r0, r1}
  27:Src/bolt_application.c ****   return app;
  55              		.loc 1 27 3 is_stmt 1 view .LVU6
  28:Src/bolt_application.c **** }
  56              		.loc 1 28 1 is_stmt 0 view .LVU7
  57 001a 2046     		mov	r0, r4
  58 001c 03B0     		add	sp, sp, #12
  59              		.cfi_def_cfa_offset 12
  60              		@ sp needed
  61 001e 30BD     		pop	{r4, r5, pc}
  62              		.loc 1 28 1 view .LVU8
  63              		.cfi_endproc
  64              	.LFE132:
  66              		.section	.text.nonBlockingLED,"ax",%progbits
  67              		.align	1
  68              		.global	nonBlockingLED
  69              		.syntax unified
  70              		.thumb
  71              		.thumb_func
  73              	nonBlockingLED:
  74              	.LVL3:
  75              	.LFB134:
  29:Src/bolt_application.c **** 
  30:Src/bolt_application.c **** void applicationLoop(Application *app_p)
  31:Src/bolt_application.c **** {
  32:Src/bolt_application.c ****   // Blink LED to make sure application is not halted
  33:Src/bolt_application.c ****   // Think of it as the PDU's "heartbeat"...
  34:Src/bolt_application.c ****   nonBlockingLED(app_p);
  35:Src/bolt_application.c **** 
  36:Src/bolt_application.c ****   char message[] = "Hello, UART!\r\n";
  37:Src/bolt_application.c ****   HAL_UART_Transmit(&hlpuart1, (uint8_t *)message, 14, HAL_MAX_DELAY);
  38:Src/bolt_application.c **** }
  39:Src/bolt_application.c **** 
  40:Src/bolt_application.c **** void nonBlockingLED(Application *app_p)
  41:Src/bolt_application.c **** {
  76              		.loc 1 41 1 is_stmt 1 view -0
ARM GAS  C:\Users\Tshud\AppData\Local\Temp\ccaWs918.s 			page 3


  77              		.cfi_startproc
  78              		@ args = 0, pretend = 0, frame = 0
  79              		@ frame_needed = 0, uses_anonymous_args = 0
  80              		.loc 1 41 1 is_stmt 0 view .LVU10
  81 0000 08B5     		push	{r3, lr}
  82              		.cfi_def_cfa_offset 8
  83              		.cfi_offset 3, -8
  84              		.cfi_offset 14, -4
  42:Src/bolt_application.c ****   if (SWTimer_expired(&app_p->nonblocking_led_timer))
  85              		.loc 1 42 3 is_stmt 1 view .LVU11
  86              		.loc 1 42 7 is_stmt 0 view .LVU12
  87 0002 FFF7FEFF 		bl	SWTimer_expired
  88              	.LVL4:
  89              		.loc 1 42 6 discriminator 1 view .LVU13
  90 0006 00B9     		cbnz	r0, .L6
  91              	.L3:
  43:Src/bolt_application.c ****   {
  44:Src/bolt_application.c ****     HAL_GPIO_TogglePin(LD2_GPIO_Port, LD2_Pin);
  45:Src/bolt_application.c ****   }
  46:Src/bolt_application.c **** }...
  92              		.loc 1 46 1 view .LVU14
  93 0008 08BD     		pop	{r3, pc}
  94              	.L6:
  44:Src/bolt_application.c ****     HAL_GPIO_TogglePin(LD2_GPIO_Port, LD2_Pin);
  95              		.loc 1 44 5 is_stmt 1 view .LVU15
  96 000a 2021     		movs	r1, #32
  97 000c 4FF09040 		mov	r0, #1207959552
  98 0010 FFF7FEFF 		bl	HAL_GPIO_TogglePin
  99              	.LVL5:
 100              		.loc 1 46 1 is_stmt 0 view .LVU16
 101 0014 F8E7     		b	.L3
 102              		.cfi_endproc
 103              	.LFE134:
 105              		.section	.rodata.applicationLoop.str1.4,"aMS",%progbits,1
 106              		.align	2
 107              	.LC0:
 108 0000 48656C6C 		.ascii	"Hello, UART!\015\012\000"
 108      6F2C2055 
 108      41525421 
 108      0D0A00
 109              		.section	.text.applicationLoop,"ax",%progbits
 110              		.align	1
 111              		.global	applicationLoop
 112              		.syntax unified
 113              		.thumb
 114              		.thumb_func
 116              	applicationLoop:
 117              	.LVL6:
 118              	.LFB133:
  31:Src/bolt_application.c **** {
 119              		.loc 1 31 1 is_stmt 1 view -0
 120              		.cfi_startproc
 121              		@ args = 0, pretend = 0, frame = 16
 122              		@ frame_needed = 0, uses_anonymous_args = 0
  31:Src/bolt_application.c **** {
 123              		.loc 1 31 1 is_stmt 0 view .LVU18
 124 0000 00B5     		push	{lr}
ARM GAS  C:\Users\Tshud\AppData\Local\Temp\ccaWs918.s 			page 4


 125              		.cfi_def_cfa_offset 4
 126              		.cfi_offset 14, -4
 127 0002 85B0     		sub	sp, sp, #20
 128              		.cfi_def_cfa_offset 24
  34:Src/bolt_application.c ****   nonBlockingLED(app_p);
 129              		.loc 1 34 3 is_stmt 1 view .LVU19
 130 0004 FFF7FEFF 		bl	nonBlockingLED
 131              	.LVL7:
  36:Src/bolt_application.c ****   char message[] = "Hello, UART!\r\n";
 132              		.loc 1 36 3 view .LVU20
  36:Src/bolt_application.c ****   char message[] = "Hello, UART!\r\n";
 133              		.loc 1 36 8 is_stmt 0 view .LVU21
 134 0008 094B     		ldr	r3, .L9
 135 000a EC46     		mov	ip, sp
 136 000c 0FCB     		ldm	r3, {r0, r1, r2, r3}
 137 000e ACE80700 		stmia	ip!, {r0, r1, r2}
 138 0012 2CF8023B 		strh	r3, [ip], #2	@ movhi
 139 0016 1B0C     		lsrs	r3, r3, #16
 140 0018 8CF80030 		strb	r3, [ip]
  37:Src/bolt_application.c ****   HAL_UART_Transmit(&hlpuart1, (uint8_t *)message, 14, HAL_MAX_DELAY);
 141              		.loc 1 37 3 is_stmt 1 view .LVU22
 142 001c 4FF0FF33 		mov	r3, #-1
 143 0020 0E22     		movs	r2, #14
 144 0022 6946     		mov	r1, sp
 145 0024 0348     		ldr	r0, .L9+4
 146 0026 FFF7FEFF 		bl	HAL_UART_Transmit
 147              	.LVL8:
  38:Src/bolt_application.c **** }
 148              		.loc 1 38 1 is_stmt 0 view .LVU23
 149 002a 05B0     		add	sp, sp, #20
 150              		.cfi_def_cfa_offset 4
 151              		@ sp needed
 152 002c 5DF804FB 		ldr	pc, [sp], #4
 153              	.L10:
 154              		.align	2
 155              	.L9:
 156 0030 00000000 		.word	.LC0
 157 0034 00000000 		.word	hlpuart1
 158              		.cfi_endproc
 159              	.LFE133:
 161              		.text
 162              	.Letext0:
 163              		.file 2 "C:/Users/Tshud/AppData/Roaming/Code/User/globalStorage/bmd.stm32-for-vscode/@xpack-dev-to
 164              		.file 3 "C:/Users/Tshud/AppData/Roaming/Code/User/globalStorage/bmd.stm32-for-vscode/@xpack-dev-to
 165              		.file 4 "Drivers/CMSIS/Device/ST/STM32G4xx/Include/stm32g474xx.h"
 166              		.file 5 "Drivers/STM32G4xx_HAL_Driver/Inc/stm32g4xx_hal_def.h"
 167              		.file 6 "Drivers/STM32G4xx_HAL_Driver/Inc/stm32g4xx_hal_dma.h"
 168              		.file 7 "Drivers/STM32G4xx_HAL_Driver/Inc/stm32g4xx_hal_uart.h"
 169              		.file 8 "Inc/bolt_sw_timer.h"
 170              		.file 9 "Inc/bolt_application.h"
 171              		.file 10 "Inc/usart.h"
 172              		.file 11 "Drivers/STM32G4xx_HAL_Driver/Inc/stm32g4xx_hal_gpio.h"
ARM GAS  C:\Users\Tshud\AppData\Local\Temp\ccaWs918.s 			page 5

